target datalayout = "e-m:e-p270:32:32-p271:32:32-p272:64:64-i64:64-i128:128-f80:128-n8:16:32:64-S128"
target triple = "x86_64-pc-linux-gnu"

%struct.ui_st = type { ptr, ptr, ptr, %struct.crypto_ex_data_st, i32, ptr }
%struct.crypto_ex_data_st = type { ptr, ptr }
%struct.ui_method_st = type { ptr, ptr, ptr, ptr, ptr, ptr, ptr, ptr, ptr, %struct.crypto_ex_data_st }

@.str = private unnamed_addr constant [30 x i8] c"../openssl/crypto/ui/ui_lib.c\00", align 1
@__func__.UI_new_method = private unnamed_addr constant [14 x i8] c"UI_new_method\00", align 1

; Function Attrs: inlinehint nounwind uwtable
define internal ptr @ossl_check_UI_STRING_freefunc_type(ptr noundef %0) #3 {
  %2 = alloca ptr, align 8
  store ptr %0, ptr %2, align 8, !tbaa !25
  %3 = load ptr, ptr %2, align 8, !tbaa !25
  ret ptr %3
}

; Function Attrs: inlinehint nounwind uwtable
define internal ptr @ossl_check_UI_STRING_sk_type(ptr noundef %0) #3 {
  %2 = alloca ptr, align 8
  store ptr %0, ptr %2, align 8, !tbaa !24
  %3 = load ptr, ptr %2, align 8, !tbaa !24
  ret ptr %3
}

; Function Attrs: nounwind uwtable
define void @UI_free(ptr noundef %0) #0 {
  %2 = alloca ptr, align 8
  store ptr %0, ptr %2, align 8, !tbaa !8
  %3 = load ptr, ptr %2, align 8, !tbaa !8
  %4 = icmp eq ptr %3, null
  br i1 %4, label %5, label %6

5:                                                ; preds = %1
  br label %35

6:                                                ; preds = %1
  %7 = load ptr, ptr %2, align 8, !tbaa !8
  %8 = getelementptr inbounds nuw %struct.ui_st, ptr %7, i32 0, i32 4
  %9 = load i32, ptr %8, align 8, !tbaa !18
  %10 = and i32 %9, 2
  %11 = icmp ne i32 %10, 0
  br i1 %11, label %12, label %22

12:                                               ; preds = %6
  %13 = load ptr, ptr %2, align 8, !tbaa !8
  %14 = getelementptr inbounds nuw %struct.ui_st, ptr %13, i32 0, i32 0
  %15 = load ptr, ptr %14, align 8, !tbaa !17
  %16 = getelementptr inbounds nuw %struct.ui_method_st, ptr %15, i32 0, i32 7
  %17 = load ptr, ptr %16, align 8, !tbaa !19
  %18 = load ptr, ptr %2, align 8, !tbaa !8
  %19 = load ptr, ptr %2, align 8, !tbaa !8
  %20 = getelementptr inbounds nuw %struct.ui_st, ptr %19, i32 0, i32 2
  %21 = load ptr, ptr %20, align 8, !tbaa !22
  call void %17(ptr noundef %18, ptr noundef %21)
  br label %22

22:                                               ; preds = %12, %6
  %23 = load ptr, ptr %2, align 8, !tbaa !8
  %24 = getelementptr inbounds nuw %struct.ui_st, ptr %23, i32 0, i32 1
  %25 = load ptr, ptr %24, align 8, !tbaa !23
  %26 = call ptr @ossl_check_UI_STRING_sk_type(ptr noundef %25)
  %27 = call ptr @ossl_check_UI_STRING_freefunc_type(ptr noundef @free_string)
  call void @OPENSSL_sk_pop_free(ptr noundef %26, ptr noundef %27)
  %28 = load ptr, ptr %2, align 8, !tbaa !8
  %29 = load ptr, ptr %2, align 8, !tbaa !8
  %30 = getelementptr inbounds nuw %struct.ui_st, ptr %29, i32 0, i32 3
  call void @CRYPTO_free_ex_data(i32 noundef 11, ptr noundef %28, ptr noundef %30)
  %31 = load ptr, ptr %2, align 8, !tbaa !8
  %32 = getelementptr inbounds nuw %struct.ui_st, ptr %31, i32 0, i32 5
  %33 = load ptr, ptr %32, align 8, !tbaa !10
  call void @CRYPTO_THREAD_lock_free(ptr noundef %33)
  %34 = load ptr, ptr %2, align 8, !tbaa !8
  call void @CRYPTO_free(ptr noundef %34, ptr noundef @.str, i32 noundef 81)
  br label %35

35:                                               ; preds = %22, %5
  ret void
}

; Function Attrs: nounwind uwtable
define ptr @UI_new_method(ptr noundef %0) #0 {
  %2 = alloca ptr, align 8
  %3 = alloca ptr, align 8
  %4 = alloca ptr, align 8
  %5 = alloca i32, align 4
  store ptr %0, ptr %3, align 8, !tbaa !3
  call void @llvm.lifetime.start.p0(i64 8, ptr %4) #7
  %6 = call noalias ptr @CRYPTO_zalloc(i64 noundef 56, ptr noundef @.str, i32 noundef 25)
  store ptr %6, ptr %4, align 8, !tbaa !8
  %7 = load ptr, ptr %4, align 8, !tbaa !8
  %8 = icmp eq ptr %7, null
  br i1 %8, label %9, label %10

9:                                                ; preds = %1
  store ptr null, ptr %2, align 8
  store i32 1, ptr %5, align 4
  br label %43

10:                                               ; preds = %1
  %11 = call ptr @CRYPTO_THREAD_lock_new()
  %12 = load ptr, ptr %4, align 8, !tbaa !8
  %13 = getelementptr inbounds nuw %struct.ui_st, ptr %12, i32 0, i32 5
  store ptr %11, ptr %13, align 8, !tbaa !10
  %14 = load ptr, ptr %4, align 8, !tbaa !8
  %15 = getelementptr inbounds nuw %struct.ui_st, ptr %14, i32 0, i32 5
  %16 = load ptr, ptr %15, align 8, !tbaa !10
  %17 = icmp eq ptr %16, null
  br i1 %17, label %18, label %20

18:                                               ; preds = %10
  call void @ERR_new()
  call void @ERR_set_debug(ptr noundef @.str, i32 noundef 32, ptr noundef @__func__.UI_new_method)
  call void (i32, i32, ptr, ...) @ERR_set_error(i32 noundef 40, i32 noundef 524303, ptr noundef null)
  %19 = load ptr, ptr %4, align 8, !tbaa !8
  call void @CRYPTO_free(ptr noundef %19, ptr noundef @.str, i32 noundef 33)
  store ptr null, ptr %2, align 8
  store i32 1, ptr %5, align 4
  br label %43

20:                                               ; preds = %10
  %21 = load ptr, ptr %3, align 8, !tbaa !3
  %22 = icmp eq ptr %21, null
  br i1 %22, label %23, label %25

23:                                               ; preds = %20
  %24 = call ptr @UI_get_default_method()
  store ptr %24, ptr %3, align 8, !tbaa !3
  br label %25

25:                                               ; preds = %23, %20
  %26 = load ptr, ptr %3, align 8, !tbaa !3
  %27 = icmp eq ptr %26, null
  br i1 %27, label %28, label %30

28:                                               ; preds = %25
  %29 = call ptr @UI_null()
  store ptr %29, ptr %3, align 8, !tbaa !3
  br label %30

30:                                               ; preds = %28, %25
  %31 = load ptr, ptr %3, align 8, !tbaa !3
  %32 = load ptr, ptr %4, align 8, !tbaa !8
  %33 = getelementptr inbounds nuw %struct.ui_st, ptr %32, i32 0, i32 0
  store ptr %31, ptr %33, align 8, !tbaa !17
  %34 = load ptr, ptr %4, align 8, !tbaa !8
  %35 = load ptr, ptr %4, align 8, !tbaa !8
  %36 = getelementptr inbounds nuw %struct.ui_st, ptr %35, i32 0, i32 3
  %37 = call i32 @CRYPTO_new_ex_data(i32 noundef 11, ptr noundef %34, ptr noundef %36)
  %38 = icmp ne i32 %37, 0
  br i1 %38, label %41, label %39

39:                                               ; preds = %30
  %40 = load ptr, ptr %4, align 8, !tbaa !8
  call void @UI_free(ptr noundef %40)
  store ptr null, ptr %2, align 8
  store i32 1, ptr %5, align 4
  br label %43

41:                                               ; preds = %30
  %42 = load ptr, ptr %4, align 8, !tbaa !8
  store ptr %42, ptr %2, align 8
  store i32 1, ptr %5, align 4
  br label %43

43:                                               ; preds = %41, %39, %18, %9
  call void @llvm.lifetime.end.p0(i64 8, ptr %4) #7
  %44 = load ptr, ptr %2, align 8
  ret ptr %44
}