; Function Attrs: nounwind uwtable
define ptr @UI_new_method(ptr noundef %0) local_unnamed_addr #0 {
  %2 = tail call noalias ptr @CRYPTO_zalloc(i64 noundef 56, ptr noundef nonnull @.str, i32 noundef 25) #8
  %3 = icmp eq ptr %2, null
  br i1 %3, label %31, label %4

4:                                                ; preds = %1
  %5 = tail call ptr @CRYPTO_THREAD_lock_new() #8
  %6 = getelementptr inbounds nuw i8, ptr %2, i64 48
  store ptr %5, ptr %6, align 8, !tbaa !3
  %7 = icmp eq ptr %5, null
  br i1 %7, label %8, label %9

8:                                                ; preds = %4
  tail call void @ERR_new() #8
  tail call void @ERR_set_debug(ptr noundef nonnull @.str, i32 noundef 32, ptr noundef nonnull @__func__.UI_new_method) #8
  tail call void (i32, i32, ptr, ...) @ERR_set_error(i32 noundef 40, i32 noundef 524303, ptr noundef null) #8
  br label %.sink.split

9:                                                ; preds = %4
  %10 = icmp eq ptr %0, null
  br i1 %10, label %11, label %.thread

11:                                               ; preds = %9
  %12 = tail call ptr @UI_get_default_method() #8
  %13 = icmp eq ptr %12, null
  br i1 %13, label %14, label %.thread

14:                                               ; preds = %11
  %15 = tail call ptr @UI_null() #8
  br label %.thread

.thread:                                          ; preds = %9, %14, %11
  %.1 = phi ptr [ %15, %14 ], [ %12, %11 ], [ %0, %9 ]
  store ptr %.1, ptr %2, align 8, !tbaa !14
  %16 = getelementptr inbounds nuw i8, ptr %2, i64 24
  %17 = tail call i32 @CRYPTO_new_ex_data(i32 noundef 11, ptr noundef nonnull %2, ptr noundef nonnull %16) #8
  %.not = icmp eq i32 %17, 0
  br i1 %.not, label %18, label %31

18:                                               ; preds = %.thread
  %19 = getelementptr inbounds nuw i8, ptr %2, i64 40
  %20 = load i32, ptr %19, align 8, !tbaa !15
  %21 = and i32 %20, 2
  %.not.i = icmp eq i32 %21, 0
  br i1 %.not.i, label %UI_free.exit, label %22

22:                                               ; preds = %18
  %23 = load ptr, ptr %2, align 8, !tbaa !14
  %24 = getelementptr inbounds nuw i8, ptr %23, i64 56
  %25 = load ptr, ptr %24, align 8, !tbaa !16
  %26 = getelementptr inbounds nuw i8, ptr %2, i64 16
  %27 = load ptr, ptr %26, align 8, !tbaa !19
  tail call void %25(ptr noundef nonnull %2, ptr noundef %27) #8
  br label %UI_free.exit

UI_free.exit:                                     ; preds = %18, %22
  %28 = getelementptr inbounds nuw i8, ptr %2, i64 8
  %29 = load ptr, ptr %28, align 8, !tbaa !20
  tail call void @OPENSSL_sk_pop_free(ptr noundef %29, ptr noundef nonnull @free_string) #8
  tail call void @CRYPTO_free_ex_data(i32 noundef 11, ptr noundef nonnull %2, ptr noundef nonnull %16) #8
  %30 = load ptr, ptr %6, align 8, !tbaa !3
  tail call void @CRYPTO_THREAD_lock_free(ptr noundef %30) #8
  br label %.sink.split

.sink.split:                                      ; preds = %8, %UI_free.exit
  %.sink = phi i32 [ 81, %UI_free.exit ], [ 33, %8 ]
  tail call void @CRYPTO_free(ptr noundef nonnull %2, ptr noundef nonnull @.str, i32 noundef %.sink) #8
  br label %31

31:                                               ; preds = %.sink.split, %.thread, %1
  %.0 = phi ptr [ null, %1 ], [ %2, %.thread ], [ null, %.sink.split ]
  ret ptr %.0
}